target datalayout = "e-m:e-p270:32:32-p271:32:32-p272:64:64-i64:64-i128:128-f80:128-n8:16:32:64-S128"
target triple = "x86_64-pc-linux-gnu"

%struct.luaL_Buffer = type { ptr, i32, ptr, [8192 x i8] }

; Function Attrs: nounwind uwtable
define dso_local void @luaL_buffinit(ptr noundef %0, ptr noundef %1) #0 {
  %3 = alloca ptr, align 8
  %4 = alloca ptr, align 8
  store ptr %0, ptr %3, align 8, !tbaa !4
  store ptr %1, ptr %4, align 8, !tbaa !57
  %5 = load ptr, ptr %3, align 8, !tbaa !4
  %6 = load ptr, ptr %4, align 8, !tbaa !57
  %7 = getelementptr inbounds nuw %struct.luaL_Buffer, ptr %6, i32 0, i32 2
  store ptr %5, ptr %7, align 8, !tbaa !59
  %8 = load ptr, ptr %4, align 8, !tbaa !57
  %9 = getelementptr inbounds nuw %struct.luaL_Buffer, ptr %8, i32 0, i32 3
  %10 = getelementptr inbounds [8192 x i8], ptr %9, i64 0, i64 0
  %11 = load ptr, ptr %4, align 8, !tbaa !57
  %12 = getelementptr inbounds nuw %struct.luaL_Buffer, ptr %11, i32 0, i32 0
  store ptr %10, ptr %12, align 8, !tbaa !61
  %13 = load ptr, ptr %4, align 8, !tbaa !57
  %14 = getelementptr inbounds nuw %struct.luaL_Buffer, ptr %13, i32 0, i32 1
  store i32 0, ptr %14, align 8, !tbaa !62
  ret void
}