; Function Attrs: mustprogress nofree norecurse nosync nounwind willreturn memory(argmem: write) uwtable
define dso_local void @luaL_buffinit(ptr noundef %0, ptr noundef initializes((16, 24)) %1) local_unnamed_addr #7 {
  %3 = getelementptr inbounds nuw i8, ptr %1, i64 16
  store ptr %0, ptr %3, align 8, !tbaa !49
  %4 = getelementptr inbounds nuw i8, ptr %1, i64 24
  store ptr %4, ptr %1, align 8, !tbaa !51
  %5 = getelementptr inbounds nuw i8, ptr %1, i64 8
  store i32 0, ptr %5, align 8, !tbaa !52
  ret void
}